; Function Attrs: nounwind uwtable
define dso_local i64 @in_range_int2_int8(ptr noundef readonly captures(none) %0) local_unnamed_addr #0 {
  %2 = getelementptr inbounds nuw i8, ptr %0, i64 32
  %3 = load i64, ptr %2, align 8
  %4 = shl i64 %3, 48
  %5 = ashr exact i64 %4, 48
  %6 = getelementptr inbounds nuw i8, ptr %0, i64 48
  %7 = load i64, ptr %6, align 8
  %8 = shl i64 %7, 48
  %9 = ashr exact i64 %8, 48
  %10 = getelementptr inbounds nuw i8, ptr %0, i64 64
  %11 = load i64, ptr %10, align 8
  %12 = getelementptr inbounds nuw i8, ptr %0, i64 80
  %13 = load i64, ptr %12, align 8
  %14 = getelementptr inbounds nuw i8, ptr %0, i64 96
  %15 = load i64, ptr %14, align 8
  %16 = tail call i64 @DirectFunctionCall5Coll(ptr noundef nonnull @in_range_int4_int8, i32 noundef 0, i64 noundef %5, i64 noundef %9, i64 noundef %11, i64 noundef %13, i64 noundef %15) #13
  ret i64 %16
}